; Function Attrs: mustprogress nofree norecurse nosync nounwind willreturn memory(read, inaccessiblemem: none) uwtable
define hidden noundef zeroext i1 @_ZN6hermes12RegisterFile6isUsedENS_8RegisterE(ptr nocapture noundef nonnull readonly align 8 dereferenceable(24) %this, i32 %r.coerce) local_unnamed_addr #2 align 2 {
entry:
  %rem.i.i = and i32 %r.coerce, 63
  %sh_prom.i.i = zext nneg i32 %rem.i.i to i64
  %shl.i.i = shl nuw i64 1, %sh_prom.i.i
  %div2.i.i = lshr i32 %r.coerce, 6
  %conv.i.i = zext nneg i32 %div2.i.i to i64
  %0 = load ptr, ptr %this, align 8
  %arrayidx.i.i.i = getelementptr inbounds i64, ptr %0, i64 %conv.i.i
  %1 = load i64, ptr %arrayidx.i.i.i, align 8
  %and.i.i = and i64 %1, %shl.i.i
  %cmp.i.i.not = icmp eq i64 %and.i.i, 0
  ret i1 %cmp.i.i.not
}